; Function Attrs: mustprogress uwtable
define noundef signext i8 @_ZN6icu_757UVector9retainAllERKS0_(ptr nocapture noundef nonnull align 8 dereferenceable(40) %this, ptr nocapture noundef nonnull readonly align 8 dereferenceable(40) %other) local_unnamed_addr #1 align 2 {
entry:
  %count.i = getelementptr inbounds i8, ptr %this, i64 8
  %0 = load i32, ptr %count.i, align 8
  %cmp14 = icmp sgt i32 %0, 0
  br i1 %cmp14, label %for.body.lr.ph, label %for.end

for.body.lr.ph:                                   ; preds = %entry
  %elements = getelementptr inbounds i8, ptr %this, i64 16
  %comparer.i = getelementptr inbounds i8, ptr %other, i64 32
  %count.i4 = getelementptr inbounds i8, ptr %other, i64 8
  %elements.i = getelementptr inbounds i8, ptr %other, i64 16
  %deleter.i = getelementptr inbounds i8, ptr %this, i64 24
  %1 = zext nneg i32 %0 to i64
  br label %for.body

for.body:                                         ; preds = %for.body.lr.ph, %for.inc
  %indvars.iv = phi i64 [ %1, %for.body.lr.ph ], [ %indvars.iv.next, %for.inc ]
  %changed.016 = phi i8 [ 0, %for.body.lr.ph ], [ %changed.1, %for.inc ]
  %indvars.iv.next = add nsw i64 %indvars.iv, -1
  %2 = load ptr, ptr %elements, align 8
  %arrayidx = getelementptr inbounds %union.UElement, ptr %2, i64 %indvars.iv.next
  %agg.tmp.sroa.0.0.copyload = load ptr, ptr %arrayidx, align 8
  %3 = load ptr, ptr %comparer.i, align 8
  %cmp.not.i = icmp eq ptr %3, null
  br i1 %cmp.not.i, label %for.cond9.preheader.i, label %for.cond.preheader.i

for.cond.preheader.i:                             ; preds = %for.body
  %4 = load i32, ptr %count.i4, align 8
  %cmp212.i = icmp sgt i32 %4, 0
  br i1 %cmp212.i, label %for.body.i, label %land.lhs.true.i.i

for.cond9.preheader.i:                            ; preds = %for.body
  %5 = ptrtoint ptr %agg.tmp.sroa.0.0.copyload to i64
  %key.sroa.0.0.extract.trunc.i = trunc i64 %5 to i32
  %6 = load i32, ptr %count.i4, align 8
  %cmp1115.i = icmp sgt i32 %6, 0
  br i1 %cmp1115.i, label %for.body12.lr.ph.i, label %land.lhs.true.i.i

for.body12.lr.ph.i:                               ; preds = %for.cond9.preheader.i
  %7 = load ptr, ptr %elements.i, align 8
  %wide.trip.count32.i = zext nneg i32 %6 to i64
  br label %for.body12.us.i

for.body12.us.i:                                  ; preds = %for.inc29.us.i, %for.body12.lr.ph.i
  %indvars.iv29.i = phi i64 [ %indvars.iv.next30.i, %for.inc29.us.i ], [ 0, %for.body12.lr.ph.i ]
  %arrayidx24.us.i = getelementptr inbounds %union.UElement, ptr %7, i64 %indvars.iv29.i
  %8 = load i32, ptr %arrayidx24.us.i, align 8
  %cmp25.us.i = icmp eq i32 %8, %key.sroa.0.0.extract.trunc.i
  br i1 %cmp25.us.i, label %_ZNK6icu_757UVector7indexOfE8UElementia.exit, label %for.inc29.us.i

for.inc29.us.i:                                   ; preds = %for.body12.us.i
  %indvars.iv.next30.i = add nuw nsw i64 %indvars.iv29.i, 1
  %exitcond33.not.i = icmp eq i64 %indvars.iv.next30.i, %wide.trip.count32.i
  br i1 %exitcond33.not.i, label %land.lhs.true.i.i, label %for.body12.us.i, !llvm.loop !14

for.body.i:                                       ; preds = %for.cond.preheader.i, %for.inc.i
  %indvars.iv.i = phi i64 [ %indvars.iv.next.i, %for.inc.i ], [ 0, %for.cond.preheader.i ]
  %9 = load ptr, ptr %comparer.i, align 8
  %10 = load ptr, ptr %elements.i, align 8
  %arrayidx.i = getelementptr inbounds %union.UElement, ptr %10, i64 %indvars.iv.i
  %agg.tmp4.sroa.0.0.copyload.i = load ptr, ptr %arrayidx.i, align 8
  %call.i = tail call noundef signext i8 %9(ptr %agg.tmp.sroa.0.0.copyload, ptr %agg.tmp4.sroa.0.0.copyload.i)
  %tobool.not.i = icmp eq i8 %call.i, 0
  br i1 %tobool.not.i, label %for.inc.i, label %_ZNK6icu_757UVector7indexOfE8UElementia.exit

for.inc.i:                                        ; preds = %for.body.i
  %indvars.iv.next.i = add nuw nsw i64 %indvars.iv.i, 1
  %11 = load i32, ptr %count.i4, align 8
  %12 = sext i32 %11 to i64
  %cmp2.i = icmp slt i64 %indvars.iv.next.i, %12
  br i1 %cmp2.i, label %for.body.i, label %land.lhs.true.i.i, !llvm.loop !17

_ZNK6icu_757UVector7indexOfE8UElementia.exit:     ; preds = %for.body.i, %for.body12.us.i
  %retval.0.i.in = phi i64 [ %indvars.iv29.i, %for.body12.us.i ], [ %indvars.iv.i, %for.body.i ]
  %13 = and i64 %retval.0.i.in, 2147483648
  %cmp3.not = icmp eq i64 %13, 0
  br i1 %cmp3.not, label %for.inc, label %land.lhs.true.i.i

land.lhs.true.i.i:                                ; preds = %for.inc.i, %for.inc29.us.i, %_ZNK6icu_757UVector7indexOfE8UElementia.exit, %for.cond9.preheader.i, %for.cond.preheader.i
  %14 = load i32, ptr %count.i, align 8
  %15 = sext i32 %14 to i64
  %cmp2.i.i.not = icmp sgt i64 %indvars.iv, %15
  br i1 %cmp2.i.i.not, label %for.inc, label %if.then.i.i

if.then.i.i:                                      ; preds = %land.lhs.true.i.i
  %16 = load ptr, ptr %elements, align 8
  %arrayidx.i.i = getelementptr inbounds %union.UElement, ptr %16, i64 %indvars.iv.next
  %17 = load ptr, ptr %arrayidx.i.i, align 8
  %sub7.i.i = add nsw i32 %14, -1
  %18 = zext i32 %sub7.i.i to i64
  %cmp48.i.i = icmp ult i64 %indvars.iv.next, %18
  br i1 %cmp48.i.i, label %for.body.i.i, label %_ZN6icu_757UVector15orphanElementAtEi.exit.i

for.body.i.i:                                     ; preds = %if.then.i.i, %for.body.i.i
  %indvars.iv.i.i = phi i64 [ %indvars.iv.next.i.i, %for.body.i.i ], [ %indvars.iv.next, %if.then.i.i ]
  %19 = load ptr, ptr %elements, align 8
  %indvars.iv.next.i.i = add nuw nsw i64 %indvars.iv.i.i, 1
  %arrayidx7.i.i = getelementptr inbounds %union.UElement, ptr %19, i64 %indvars.iv.next.i.i
  %arrayidx10.i.i = getelementptr inbounds %union.UElement, ptr %19, i64 %indvars.iv.i.i
  %20 = load i64, ptr %arrayidx7.i.i, align 8
  store i64 %20, ptr %arrayidx10.i.i, align 8
  %21 = load i32, ptr %count.i, align 8
  %sub.i.i = add nsw i32 %21, -1
  %22 = trunc i64 %indvars.iv.next.i.i to i32
  %cmp4.i.i = icmp sgt i32 %sub.i.i, %22
  br i1 %cmp4.i.i, label %for.body.i.i, label %_ZN6icu_757UVector15orphanElementAtEi.exit.i, !llvm.loop !8

_ZN6icu_757UVector15orphanElementAtEi.exit.i:     ; preds = %for.body.i.i, %if.then.i.i
  %sub.lcssa.i.i = phi i32 [ %sub7.i.i, %if.then.i.i ], [ %sub.i.i, %for.body.i.i ]
  store i32 %sub.lcssa.i.i, ptr %count.i, align 8
  %cmp.not.i5 = icmp eq ptr %17, null
  br i1 %cmp.not.i5, label %for.inc, label %land.lhs.true.i

land.lhs.true.i:                                  ; preds = %_ZN6icu_757UVector15orphanElementAtEi.exit.i
  %23 = load ptr, ptr %deleter.i, align 8
  %cmp2.not.i = icmp eq ptr %23, null
  br i1 %cmp2.not.i, label %for.inc, label %if.then.i

if.then.i:                                        ; preds = %land.lhs.true.i
  tail call void %23(ptr noundef nonnull %17)
  br label %for.inc

for.inc:                                          ; preds = %if.then.i, %land.lhs.true.i, %_ZN6icu_757UVector15orphanElementAtEi.exit.i, %land.lhs.true.i.i, %_ZNK6icu_757UVector7indexOfE8UElementia.exit
  %changed.1 = phi i8 [ %changed.016, %_ZNK6icu_757UVector7indexOfE8UElementia.exit ], [ 1, %land.lhs.true.i.i ], [ 1, %_ZN6icu_757UVector15orphanElementAtEi.exit.i ], [ 1, %land.lhs.true.i ], [ 1, %if.then.i ]
  %cmp = icmp sgt i64 %indvars.iv, 1
  br i1 %cmp, label %for.body, label %for.end, !llvm.loop !21

for.end:                                          ; preds = %for.inc, %entry
  %changed.0.lcssa = phi i8 [ 0, %entry ], [ %changed.1, %for.inc ]
  ret i8 %changed.0.lcssa
}